target datalayout = "e-m:e-p270:32:32-p271:32:32-p272:64:64-i64:64-i128:128-f80:128-n8:16:32:64-S128"
target triple = "x86_64-pc-linux-gnu"

@.str.1 = private unnamed_addr constant [34 x i8] c"../openssl/crypto/conf/conf_lib.c\00", align 1
@__func__.NCONF_get_section = private unnamed_addr constant [18 x i8] c"NCONF_get_section\00", align 1

; Function Attrs: nounwind uwtable
define ptr @NCONF_get_section(ptr noundef %0, ptr noundef %1) #0 {
  %3 = alloca ptr, align 8
  %4 = alloca ptr, align 8
  %5 = alloca ptr, align 8
  store ptr %0, ptr %4, align 8, !tbaa !3
  store ptr %1, ptr %5, align 8, !tbaa !19
  %6 = load ptr, ptr %4, align 8, !tbaa !3
  %7 = icmp eq ptr %6, null
  br i1 %7, label %8, label %9

8:                                                ; preds = %2
  call void @ERR_new()
  call void @ERR_set_debug(ptr noundef @.str.1, i32 noundef 289, ptr noundef @__func__.NCONF_get_section)
  call void (i32, i32, ptr, ...) @ERR_set_error(i32 noundef 14, i32 noundef 105, ptr noundef null)
  store ptr null, ptr %3, align 8
  br label %17

9:                                                ; preds = %2
  %10 = load ptr, ptr %5, align 8, !tbaa !19
  %11 = icmp eq ptr %10, null
  br i1 %11, label %12, label %13

12:                                               ; preds = %9
  call void @ERR_new()
  call void @ERR_set_debug(ptr noundef @.str.1, i32 noundef 294, ptr noundef @__func__.NCONF_get_section)
  call void (i32, i32, ptr, ...) @ERR_set_error(i32 noundef 14, i32 noundef 107, ptr noundef null)
  store ptr null, ptr %3, align 8
  br label %17

13:                                               ; preds = %9
  %14 = load ptr, ptr %4, align 8, !tbaa !3
  %15 = load ptr, ptr %5, align 8, !tbaa !19
  %16 = call ptr @_CONF_get_section_values(ptr noundef %14, ptr noundef %15)
  store ptr %16, ptr %3, align 8
  br label %17

17:                                               ; preds = %13, %12, %8
  %18 = load ptr, ptr %3, align 8
  ret ptr %18
}