; Function Attrs: nounwind uwtable
define ptr @NCONF_get_section(ptr noundef %0, ptr noundef %1) local_unnamed_addr #0 {
  %3 = icmp eq ptr %0, null
  br i1 %3, label %4, label %5

4:                                                ; preds = %2
  tail call void @ERR_new() #15
  tail call void @ERR_set_debug(ptr noundef nonnull @.str.1, i32 noundef 289, ptr noundef nonnull @__func__.NCONF_get_section) #15
  tail call void (i32, i32, ptr, ...) @ERR_set_error(i32 noundef 14, i32 noundef 105, ptr noundef null) #15
  br label %10

5:                                                ; preds = %2
  %6 = icmp eq ptr %1, null
  br i1 %6, label %7, label %8

7:                                                ; preds = %5
  tail call void @ERR_new() #15
  tail call void @ERR_set_debug(ptr noundef nonnull @.str.1, i32 noundef 294, ptr noundef nonnull @__func__.NCONF_get_section) #15
  tail call void (i32, i32, ptr, ...) @ERR_set_error(i32 noundef 14, i32 noundef 107, ptr noundef null) #15
  br label %10

8:                                                ; preds = %5
  %9 = tail call ptr @_CONF_get_section_values(ptr noundef nonnull %0, ptr noundef nonnull %1) #15
  br label %10

10:                                               ; preds = %8, %7, %4
  %.0 = phi ptr [ null, %4 ], [ null, %7 ], [ %9, %8 ]
  ret ptr %.0
}